target datalayout = "e-m:e-p270:32:32-p271:32:32-p272:64:64-i64:64-i128:128-f80:128-n8:16:32:64-S128"
target triple = "x86_64-pc-linux-gnu"

%struct.UDataMemory = type { ptr, ptr, ptr, i8, ptr, ptr, i32 }
%struct.DataHeader = type { %struct.MappedData, %struct.UDataInfo }
%struct.MappedData = type { i16, i8, i8 }
%struct.UDataInfo = type { i16, i16, i8, i8, i8, i8, [4 x i8], [4 x i8], [4 x i8] }

; Function Attrs: mustprogress nounwind uwtable
define void @UDataMemory_init_77(ptr noundef %0) #0 {
  %2 = alloca ptr, align 8
  store ptr %0, ptr %2, align 8, !tbaa !3
  %3 = load ptr, ptr %2, align 8, !tbaa !3
  call void @llvm.memset.p0.i64(ptr align 8 %3, i8 0, i64 56, i1 false)
  %4 = load ptr, ptr %2, align 8, !tbaa !3
  %5 = getelementptr inbounds nuw %struct.UDataMemory, ptr %4, i32 0, i32 6
  store i32 -1, ptr %5, align 8, !tbaa !8
  ret void
}

; Function Attrs: nocallback nofree nounwind willreturn memory(argmem: write)
declare void @llvm.memset.p0.i64(ptr writeonly captures(none), i8, i64, i1 immarg) #1

; Function Attrs: mustprogress nounwind uwtable
define void @UDatamemory_assign_77(ptr noundef %0, ptr noundef %1) #0 {
  %3 = alloca ptr, align 8
  %4 = alloca ptr, align 8
  %5 = alloca i8, align 1
  store ptr %0, ptr %3, align 8, !tbaa !3
  store ptr %1, ptr %4, align 8, !tbaa !3
  call void @llvm.lifetime.start.p0(i64 1, ptr %5) #8
  %6 = load ptr, ptr %3, align 8, !tbaa !3
  %7 = getelementptr inbounds nuw %struct.UDataMemory, ptr %6, i32 0, i32 3
  %8 = load i8, ptr %7, align 8, !tbaa !11
  store i8 %8, ptr %5, align 1, !tbaa !12
  br label %9

9:                                                ; preds = %2
  %10 = load ptr, ptr %3, align 8, !tbaa !3
  %11 = load ptr, ptr %4, align 8, !tbaa !3
  call void @llvm.memcpy.p0.p0.i64(ptr align 8 %10, ptr align 8 %11, i64 56, i1 false)
  br label %12

12:                                               ; preds = %9
  br label %13

13:                                               ; preds = %12
  %14 = load i8, ptr %5, align 1, !tbaa !12
  %15 = load ptr, ptr %3, align 8, !tbaa !3
  %16 = getelementptr inbounds nuw %struct.UDataMemory, ptr %15, i32 0, i32 3
  store i8 %14, ptr %16, align 8, !tbaa !11
  call void @llvm.lifetime.end.p0(i64 1, ptr %5) #8
  ret void
}

; Function Attrs: nocallback nofree nosync nounwind willreturn memory(argmem: readwrite)
declare void @llvm.lifetime.start.p0(i64 immarg, ptr captures(none)) #2

; Function Attrs: nocallback nofree nounwind willreturn memory(argmem: readwrite)
declare void @llvm.memcpy.p0.p0.i64(ptr noalias writeonly captures(none), ptr noalias readonly captures(none), i64, i1 immarg) #3

; Function Attrs: nocallback nofree nosync nounwind willreturn memory(argmem: readwrite)
declare void @llvm.lifetime.end.p0(i64 immarg, ptr captures(none)) #2

; Function Attrs: mustprogress uwtable
define ptr @UDataMemory_createNewInstance_77(ptr noundef %0) #4 {
  %2 = alloca ptr, align 8
  %3 = alloca ptr, align 8
  %4 = alloca ptr, align 8
  %5 = alloca i32, align 4
  store ptr %0, ptr %3, align 8, !tbaa !13
  call void @llvm.lifetime.start.p0(i64 8, ptr %4) #8
  %6 = load ptr, ptr %3, align 8, !tbaa !13
  %7 = load i32, ptr %6, align 4, !tbaa !14
  %8 = call noundef signext i8 @_ZL9U_FAILURE10UErrorCode(i32 noundef %7)
  %9 = icmp ne i8 %8, 0
  br i1 %9, label %10, label %11

10:                                               ; preds = %1
  store ptr null, ptr %2, align 8
  store i32 1, ptr %5, align 4
  br label %23

11:                                               ; preds = %1
  %12 = call noalias ptr @uprv_malloc_77(i64 noundef 56) #9
  store ptr %12, ptr %4, align 8, !tbaa !3
  %13 = load ptr, ptr %4, align 8, !tbaa !3
  %14 = icmp eq ptr %13, null
  br i1 %14, label %15, label %17

15:                                               ; preds = %11
  %16 = load ptr, ptr %3, align 8, !tbaa !13
  store i32 7, ptr %16, align 4, !tbaa !14
  br label %21

17:                                               ; preds = %11
  %18 = load ptr, ptr %4, align 8, !tbaa !3
  call void @UDataMemory_init_77(ptr noundef %18)
  %19 = load ptr, ptr %4, align 8, !tbaa !3
  %20 = getelementptr inbounds nuw %struct.UDataMemory, ptr %19, i32 0, i32 3
  store i8 1, ptr %20, align 8, !tbaa !11
  br label %21

21:                                               ; preds = %17, %15
  %22 = load ptr, ptr %4, align 8, !tbaa !3
  store ptr %22, ptr %2, align 8
  store i32 1, ptr %5, align 4
  br label %23

23:                                               ; preds = %21, %10
  call void @llvm.lifetime.end.p0(i64 8, ptr %4) #8
  %24 = load ptr, ptr %2, align 8
  ret ptr %24
}

; Function Attrs: inlinehint mustprogress nounwind uwtable
define internal noundef signext i8 @_ZL9U_FAILURE10UErrorCode(i32 noundef %0) #5 {
  %2 = alloca i32, align 4
  store i32 %0, ptr %2, align 4, !tbaa !14
  %3 = load i32, ptr %2, align 4, !tbaa !14
  %4 = icmp sgt i32 %3, 0
  %5 = zext i1 %4 to i8
  ret i8 %5
}

; Function Attrs: allocsize(0)
declare noalias ptr @uprv_malloc_77(i64 noundef) #6

; Function Attrs: mustprogress nounwind uwtable
define ptr @UDataMemory_normalizeDataPointer_77(ptr noundef %0) #0 {
  %2 = alloca ptr, align 8
  %3 = alloca ptr, align 8
  %4 = alloca ptr, align 8
  %5 = alloca i32, align 4
  store ptr %0, ptr %3, align 8, !tbaa !13
  call void @llvm.lifetime.start.p0(i64 8, ptr %4) #8
  %6 = load ptr, ptr %3, align 8, !tbaa !13
  store ptr %6, ptr %4, align 8, !tbaa !13
  %7 = load ptr, ptr %4, align 8, !tbaa !13
  %8 = icmp eq ptr %7, null
  br i1 %8, label %23, label %9

9:                                                ; preds = %1
  %10 = load ptr, ptr %4, align 8, !tbaa !13
  %11 = getelementptr inbounds nuw %struct.DataHeader, ptr %10, i32 0, i32 0
  %12 = getelementptr inbounds nuw %struct.MappedData, ptr %11, i32 0, i32 1
  %13 = load i8, ptr %12, align 2, !tbaa !16
  %14 = zext i8 %13 to i32
  %15 = icmp eq i32 %14, 218
  br i1 %15, label %16, label %25

16:                                               ; preds = %9
  %17 = load ptr, ptr %4, align 8, !tbaa !13
  %18 = getelementptr inbounds nuw %struct.DataHeader, ptr %17, i32 0, i32 0
  %19 = getelementptr inbounds nuw %struct.MappedData, ptr %18, i32 0, i32 2
  %20 = load i8, ptr %19, align 1, !tbaa !21
  %21 = zext i8 %20 to i32
  %22 = icmp eq i32 %21, 39
  br i1 %22, label %23, label %25

23:                                               ; preds = %16, %1
  %24 = load ptr, ptr %4, align 8, !tbaa !13
  store ptr %24, ptr %2, align 8
  store i32 1, ptr %5, align 4
  br label %28

25:                                               ; preds = %16, %9
  %26 = load ptr, ptr %3, align 8, !tbaa !13
  %27 = getelementptr inbounds double, ptr %26, i64 1
  store ptr %27, ptr %2, align 8
  store i32 1, ptr %5, align 4
  br label %28

28:                                               ; preds = %25, %23
  call void @llvm.lifetime.end.p0(i64 8, ptr %4) #8
  %29 = load ptr, ptr %2, align 8
  ret ptr %29
}

; Function Attrs: mustprogress nounwind uwtable
define void @UDataMemory_setData_77(ptr noundef %0, ptr noundef %1) #0 {
  %3 = alloca ptr, align 8
  %4 = alloca ptr, align 8
  store ptr %0, ptr %3, align 8, !tbaa !3
  store ptr %1, ptr %4, align 8, !tbaa !13
  %5 = load ptr, ptr %4, align 8, !tbaa !13
  %6 = call ptr @UDataMemory_normalizeDataPointer_77(ptr noundef %5)
  %7 = load ptr, ptr %3, align 8, !tbaa !3
  %8 = getelementptr inbounds nuw %struct.UDataMemory, ptr %7, i32 0, i32 1
  store ptr %6, ptr %8, align 8, !tbaa !22
  ret void
}

; Function Attrs: mustprogress uwtable
define void @udata_close_77(ptr noundef %0) #4 {
  %2 = alloca ptr, align 8
  store ptr %0, ptr %2, align 8, !tbaa !3
  %3 = load ptr, ptr %2, align 8, !tbaa !3
  %4 = icmp ne ptr %3, null
  br i1 %4, label %5, label %16

5:                                                ; preds = %1
  %6 = load ptr, ptr %2, align 8, !tbaa !3
  call void @uprv_unmapFile_77(ptr noundef %6)
  %7 = load ptr, ptr %2, align 8, !tbaa !3
  %8 = getelementptr inbounds nuw %struct.UDataMemory, ptr %7, i32 0, i32 3
  %9 = load i8, ptr %8, align 8, !tbaa !11
  %10 = icmp ne i8 %9, 0
  br i1 %10, label %11, label %13

11:                                               ; preds = %5
  %12 = load ptr, ptr %2, align 8, !tbaa !3
  call void @uprv_free_77(ptr noundef %12)
  br label %15

13:                                               ; preds = %5
  %14 = load ptr, ptr %2, align 8, !tbaa !3
  call void @UDataMemory_init_77(ptr noundef %14)
  br label %15

15:                                               ; preds = %13, %11
  br label %16

16:                                               ; preds = %15, %1
  ret void
}

declare void @uprv_unmapFile_77(ptr noundef) #7

declare void @uprv_free_77(ptr noundef) #7

; Function Attrs: mustprogress uwtable
define ptr @udata_getMemory_77(ptr noundef %0) #4 {
  %2 = alloca ptr, align 8
  %3 = alloca ptr, align 8
  store ptr %0, ptr %3, align 8, !tbaa !3
  %4 = load ptr, ptr %3, align 8, !tbaa !3
  %5 = icmp ne ptr %4, null
  br i1 %5, label %6, label %22

6:                                                ; preds = %1
  %7 = load ptr, ptr %3, align 8, !tbaa !3
  %8 = getelementptr inbounds nuw %struct.UDataMemory, ptr %7, i32 0, i32 1
  %9 = load ptr, ptr %8, align 8, !tbaa !22
  %10 = icmp ne ptr %9, null
  br i1 %10, label %11, label %22

11:                                               ; preds = %6
  %12 = load ptr, ptr %3, align 8, !tbaa !3
  %13 = getelementptr inbounds nuw %struct.UDataMemory, ptr %12, i32 0, i32 1
  %14 = load ptr, ptr %13, align 8, !tbaa !22
  %15 = load ptr, ptr %3, align 8, !tbaa !3
  %16 = getelementptr inbounds nuw %struct.UDataMemory, ptr %15, i32 0, i32 1
  %17 = load ptr, ptr %16, align 8, !tbaa !22
  %18 = call zeroext i16 @udata_getHeaderSize_77(ptr noundef %17)
  %19 = zext i16 %18 to i32
  %20 = sext i32 %19 to i64
  %21 = getelementptr inbounds i8, ptr %14, i64 %20
  store ptr %21, ptr %2, align 8
  br label %23

22:                                               ; preds = %6, %1
  store ptr null, ptr %2, align 8
  br label %23

23:                                               ; preds = %22, %11
  %24 = load ptr, ptr %2, align 8
  ret ptr %24
}

declare zeroext i16 @udata_getHeaderSize_77(ptr noundef) #7

; Function Attrs: mustprogress uwtable
define i32 @udata_getLength_77(ptr noundef %0) #4 {
  %2 = alloca i32, align 4
  %3 = alloca ptr, align 8
  store ptr %0, ptr %3, align 8, !tbaa !3
  %4 = load ptr, ptr %3, align 8, !tbaa !3
  %5 = icmp ne ptr %4, null
  br i1 %5, label %6, label %26

6:                                                ; preds = %1
  %7 = load ptr, ptr %3, align 8, !tbaa !3
  %8 = getelementptr inbounds nuw %struct.UDataMemory, ptr %7, i32 0, i32 1
  %9 = load ptr, ptr %8, align 8, !tbaa !22
  %10 = icmp ne ptr %9, null
  br i1 %10, label %11, label %26

11:                                               ; preds = %6
  %12 = load ptr, ptr %3, align 8, !tbaa !3
  %13 = getelementptr inbounds nuw %struct.UDataMemory, ptr %12, i32 0, i32 6
  %14 = load i32, ptr %13, align 8, !tbaa !8
  %15 = icmp sge i32 %14, 0
  br i1 %15, label %16, label %26

16:                                               ; preds = %11
  %17 = load ptr, ptr %3, align 8, !tbaa !3
  %18 = getelementptr inbounds nuw %struct.UDataMemory, ptr %17, i32 0, i32 6
  %19 = load i32, ptr %18, align 8, !tbaa !8
  %20 = load ptr, ptr %3, align 8, !tbaa !3
  %21 = getelementptr inbounds nuw %struct.UDataMemory, ptr %20, i32 0, i32 1
  %22 = load ptr, ptr %21, align 8, !tbaa !22
  %23 = call zeroext i16 @udata_getHeaderSize_77(ptr noundef %22)
  %24 = zext i16 %23 to i32
  %25 = sub nsw i32 %19, %24
  store i32 %25, ptr %2, align 4
  br label %27

26:                                               ; preds = %11, %6, %1
  store i32 -1, ptr %2, align 4
  br label %27

27:                                               ; preds = %26, %16
  %28 = load i32, ptr %2, align 4
  ret i32 %28
}

; Function Attrs: mustprogress nounwind uwtable
define ptr @udata_getRawMemory_77(ptr noundef %0) #0 {
  %2 = alloca ptr, align 8
  %3 = alloca ptr, align 8
  store ptr %0, ptr %3, align 8, !tbaa !3
  %4 = load ptr, ptr %3, align 8, !tbaa !3
  %5 = icmp ne ptr %4, null
  br i1 %5, label %6, label %15

6:                                                ; preds = %1
  %7 = load ptr, ptr %3, align 8, !tbaa !3
  %8 = getelementptr inbounds nuw %struct.UDataMemory, ptr %7, i32 0, i32 1
  %9 = load ptr, ptr %8, align 8, !tbaa !22
  %10 = icmp ne ptr %9, null
  br i1 %10, label %11, label %15

11:                                               ; preds = %6
  %12 = load ptr, ptr %3, align 8, !tbaa !3
  %13 = getelementptr inbounds nuw %struct.UDataMemory, ptr %12, i32 0, i32 1
  %14 = load ptr, ptr %13, align 8, !tbaa !22
  store ptr %14, ptr %2, align 8
  br label %16

15:                                               ; preds = %6, %1
  store ptr null, ptr %2, align 8
  br label %16

16:                                               ; preds = %15, %11
  %17 = load ptr, ptr %2, align 8
  ret ptr %17
}

; Function Attrs: mustprogress nounwind uwtable
define signext i8 @UDataMemory_isLoaded_77(ptr noundef %0) #0 {
  %2 = alloca ptr, align 8
  store ptr %0, ptr %2, align 8, !tbaa !3
  %3 = load ptr, ptr %2, align 8, !tbaa !3
  %4 = getelementptr inbounds nuw %struct.UDataMemory, ptr %3, i32 0, i32 1
  %5 = load ptr, ptr %4, align 8, !tbaa !22
  %6 = icmp ne ptr %5, null
  %7 = zext i1 %6 to i8
  ret i8 %7
}


!llvm.module.flags = !{!0, !1, !2}

!0 = !{i32 1, !"wchar_size", i32 4}
!1 = !{i32 8, !"PIC Level", i32 2}
!2 = !{i32 7, !"uwtable", i32 2}
!3 = !{!4, !4, i64 0}
!4 = !{!"p1 _ZTS11UDataMemory", !5, i64 0}
!5 = !{!"any pointer", !6, i64 0}
!6 = !{!"omnipotent char", !7, i64 0}
!7 = !{!"Simple C++ TBAA"}
!8 = !{!9, !10, i64 48}
!9 = !{!"_ZTS11UDataMemory", !5, i64 0, !5, i64 8, !5, i64 16, !6, i64 24, !5, i64 32, !5, i64 40, !10, i64 48}
!10 = !{!"int", !6, i64 0}
!11 = !{!9, !6, i64 24}
!12 = !{!6, !6, i64 0}
!13 = !{!5, !5, i64 0}
!14 = !{!15, !15, i64 0}
!15 = !{!"_ZTS10UErrorCode", !6, i64 0}
!16 = !{!17, !6, i64 2}
!17 = !{!"_ZTS10DataHeader", !18, i64 0, !20, i64 4}
!18 = !{!"_ZTS10MappedData", !19, i64 0, !6, i64 2, !6, i64 3}
!19 = !{!"short", !6, i64 0}
!20 = !{!"_ZTS9UDataInfo", !19, i64 0, !19, i64 2, !6, i64 4, !6, i64 5, !6, i64 6, !6, i64 7, !6, i64 8, !6, i64 12, !6, i64 16}
!21 = !{!17, !6, i64 3}
!22 = !{!9, !5, i64 8}
